target datalayout = "e-m:e-p270:32:32-p271:32:32-p272:64:64-i64:64-i128:128-f80:128-n8:16:32:64-S128"
target triple = "x86_64-pc-linux-gnu"

%"class.Luau::AstNode.base" = type <{ ptr, i32, %"struct.Luau::Location" }>
%"struct.Luau::Location" = type { %"struct.Luau::Position", %"struct.Luau::Position" }
%"struct.Luau::Position" = type { i32, i32 }
%"struct.Luau::AstName" = type { ptr }
%"class.std::optional.296" = type { %"struct.std::_Optional_base.297" }
%"struct.std::_Optional_base.297" = type { %"struct.std::_Optional_payload.299" }
%"struct.std::_Optional_payload.299" = type { %"struct.std::_Optional_payload_base.base.301", [3 x i8] }
%"struct.std::_Optional_payload_base.base.301" = type <{ %"union.std::_Optional_payload_base<Luau::Location>::_Storage", i8 }>
%"union.std::_Optional_payload_base<Luau::Location>::_Storage" = type { %"struct.Luau::Location" }
%"class.Luau::AstType.base" = type { %"class.Luau::AstNode.base" }
%"class.Luau::AstTypeTable" = type { %"class.Luau::AstType.base", %"struct.Luau::AstArray.689", ptr }
%"struct.Luau::AstArray.689" = type { ptr, i64 }
%"struct.Luau::AstTableProp" = type { %"struct.Luau::AstName", %"struct.Luau::Location", ptr, i32, %"class.std::optional.296" }
%"struct.Luau::AstTableIndexer" = type { ptr, ptr, %"struct.Luau::Location", i32, %"class.std::optional.296" }

; Function Attrs: mustprogress nounwind uwtable
define linkonce_odr dso_local noundef ptr @_ZNK4Luau8AstArrayINS_12AstTablePropEE3endEv(ptr noundef nonnull align 8 dereferenceable(16) %0) #2 comdat align 2 {
  %2 = alloca ptr, align 8
  store ptr %0, ptr %2, align 8, !tbaa !1276
  %3 = load ptr, ptr %2, align 8
  %4 = getelementptr inbounds nuw %"struct.Luau::AstArray.689", ptr %3, i32 0, i32 0
  %5 = load ptr, ptr %4, align 8, !tbaa !1319
  %6 = getelementptr inbounds nuw %"struct.Luau::AstArray.689", ptr %3, i32 0, i32 1
  %7 = load i64, ptr %6, align 8, !tbaa !1320
  %8 = getelementptr inbounds nuw %"struct.Luau::AstTableProp", ptr %5, i64 %7
  ret ptr %8
}

; Function Attrs: mustprogress nounwind uwtable
define linkonce_odr dso_local noundef ptr @_ZNK4Luau8AstArrayINS_12AstTablePropEE5beginEv(ptr noundef nonnull align 8 dereferenceable(16) %0) #2 comdat align 2 {
  %2 = alloca ptr, align 8
  store ptr %0, ptr %2, align 8, !tbaa !1276
  %3 = load ptr, ptr %2, align 8
  %4 = getelementptr inbounds nuw %"struct.Luau::AstArray.689", ptr %3, i32 0, i32 0
  %5 = load ptr, ptr %4, align 8, !tbaa !1319
  ret ptr %5
}

; Function Attrs: mustprogress uwtable
define dso_local void @_ZN4Luau12TypeChecker25visitEPNS_12AstTypeTableE(ptr noundef nonnull align 8 dereferenceable(784) %0, ptr noundef %1) #7 align 2 {
  %3 = alloca ptr, align 8
  %4 = alloca ptr, align 8
  %5 = alloca ptr, align 8
  %6 = alloca ptr, align 8
  %7 = alloca ptr, align 8
  %8 = alloca ptr, align 8
  store ptr %0, ptr %3, align 8, !tbaa !131
  store ptr %1, ptr %4, align 8, !tbaa !812
  %9 = load ptr, ptr %3, align 8
  call void @llvm.lifetime.start.p0(i64 8, ptr %5) #4
  %10 = load ptr, ptr %4, align 8, !tbaa !812
  %11 = getelementptr inbounds nuw %"class.Luau::AstTypeTable", ptr %10, i32 0, i32 1
  store ptr %11, ptr %5, align 8, !tbaa !1276
  call void @llvm.lifetime.start.p0(i64 8, ptr %6) #4
  %12 = load ptr, ptr %5, align 8, !tbaa !1276
  %13 = call noundef ptr @_ZNK4Luau8AstArrayINS_12AstTablePropEE5beginEv(ptr noundef nonnull align 8 dereferenceable(16) %12)
  store ptr %13, ptr %6, align 8, !tbaa !1278
  call void @llvm.lifetime.start.p0(i64 8, ptr %7) #4
  %14 = load ptr, ptr %5, align 8, !tbaa !1276
  %15 = call noundef ptr @_ZNK4Luau8AstArrayINS_12AstTablePropEE3endEv(ptr noundef nonnull align 8 dereferenceable(16) %14)
  store ptr %15, ptr %7, align 8, !tbaa !1278
  br label %16

16:                                               ; preds = %26, %2
  %17 = load ptr, ptr %6, align 8, !tbaa !1278
  %18 = load ptr, ptr %7, align 8, !tbaa !1278
  %19 = icmp ne ptr %17, %18
  br i1 %19, label %21, label %20

20:                                               ; preds = %16
  call void @llvm.lifetime.end.p0(i64 8, ptr %7) #4
  call void @llvm.lifetime.end.p0(i64 8, ptr %6) #4
  call void @llvm.lifetime.end.p0(i64 8, ptr %5) #4
  br label %29

21:                                               ; preds = %16
  call void @llvm.lifetime.start.p0(i64 8, ptr %8) #4
  %22 = load ptr, ptr %6, align 8, !tbaa !1278
  store ptr %22, ptr %8, align 8, !tbaa !1278
  %23 = load ptr, ptr %8, align 8, !tbaa !1278
  %24 = getelementptr inbounds nuw %"struct.Luau::AstTableProp", ptr %23, i32 0, i32 2
  %25 = load ptr, ptr %24, align 8, !tbaa !1280
  call void @_ZN4Luau12TypeChecker25visitEPNS_7AstTypeE(ptr noundef nonnull align 8 dereferenceable(784) %9, ptr noundef %25)
  call void @llvm.lifetime.end.p0(i64 8, ptr %8) #4
  br label %26

26:                                               ; preds = %21
  %27 = load ptr, ptr %6, align 8, !tbaa !1278
  %28 = getelementptr inbounds nuw %"struct.Luau::AstTableProp", ptr %27, i32 1
  store ptr %28, ptr %6, align 8, !tbaa !1278
  br label %16

29:                                               ; preds = %20
  %30 = load ptr, ptr %4, align 8, !tbaa !812
  %31 = getelementptr inbounds nuw %"class.Luau::AstTypeTable", ptr %30, i32 0, i32 2
  %32 = load ptr, ptr %31, align 8, !tbaa !1283
  %33 = icmp ne ptr %32, null
  br i1 %33, label %34, label %45

34:                                               ; preds = %29
  %35 = load ptr, ptr %4, align 8, !tbaa !812
  %36 = getelementptr inbounds nuw %"class.Luau::AstTypeTable", ptr %35, i32 0, i32 2
  %37 = load ptr, ptr %36, align 8, !tbaa !1283
  %38 = getelementptr inbounds nuw %"struct.Luau::AstTableIndexer", ptr %37, i32 0, i32 0
  %39 = load ptr, ptr %38, align 8, !tbaa !1287
  call void @_ZN4Luau12TypeChecker25visitEPNS_7AstTypeE(ptr noundef nonnull align 8 dereferenceable(784) %9, ptr noundef %39)
  %40 = load ptr, ptr %4, align 8, !tbaa !812
  %41 = getelementptr inbounds nuw %"class.Luau::AstTypeTable", ptr %40, i32 0, i32 2
  %42 = load ptr, ptr %41, align 8, !tbaa !1283
  %43 = getelementptr inbounds nuw %"struct.Luau::AstTableIndexer", ptr %42, i32 0, i32 1
  %44 = load ptr, ptr %43, align 8, !tbaa !1289
  call void @_ZN4Luau12TypeChecker25visitEPNS_7AstTypeE(ptr noundef nonnull align 8 dereferenceable(784) %9, ptr noundef %44)
  br label %45

45:                                               ; preds = %34, %29
  ret void
}