; Function Attrs: mustprogress uwtable
define dso_local void @_ZN4Luau12TypeChecker25visitEPNS_12AstTypeTableE(ptr noundef nonnull align 8 dereferenceable(784) %0, ptr noundef readonly captures(none) %1) local_unnamed_addr #5 align 2 {
  %3 = getelementptr inbounds nuw i8, ptr %1, i64 32
  %4 = load ptr, ptr %3, align 8, !tbaa !632
  %5 = getelementptr inbounds nuw i8, ptr %1, i64 40
  %6 = load i64, ptr %5, align 8, !tbaa !635
  %7 = getelementptr inbounds nuw %"struct.Luau::AstTableProp", ptr %4, i64 %6
  %.not14 = icmp eq i64 %6, 0
  br i1 %.not14, label %._crit_edge, label %.lr.ph

._crit_edge:                                      ; preds = %.lr.ph, %2
  %8 = getelementptr inbounds nuw i8, ptr %1, i64 48
  %9 = load ptr, ptr %8, align 8, !tbaa !636
  %.not13 = icmp eq ptr %9, null
  br i1 %.not13, label %18, label %13

.lr.ph:                                           ; preds = %2, %.lr.ph
  %.015 = phi ptr [ %12, %.lr.ph ], [ %4, %2 ]
  %10 = getelementptr inbounds nuw i8, ptr %.015, i64 24
  %11 = load ptr, ptr %10, align 8, !tbaa !639
  tail call void @_ZN4Luau12TypeChecker25visitEPNS_7AstTypeE(ptr noundef nonnull align 8 dereferenceable(784) %0, ptr noundef %11)
  %12 = getelementptr inbounds nuw i8, ptr %.015, i64 56
  %.not = icmp eq ptr %12, %7
  br i1 %.not, label %._crit_edge, label %.lr.ph

13:                                               ; preds = %._crit_edge
  %14 = load ptr, ptr %9, align 8, !tbaa !642
  tail call void @_ZN4Luau12TypeChecker25visitEPNS_7AstTypeE(ptr noundef nonnull align 8 dereferenceable(784) %0, ptr noundef %14)
  %15 = load ptr, ptr %8, align 8, !tbaa !636
  %16 = getelementptr inbounds nuw i8, ptr %15, i64 8
  %17 = load ptr, ptr %16, align 8, !tbaa !963
  tail call void @_ZN4Luau12TypeChecker25visitEPNS_7AstTypeE(ptr noundef nonnull align 8 dereferenceable(784) %0, ptr noundef %17)
  br label %18

18:                                               ; preds = %13, %._crit_edge
  ret void
}